target datalayout = "e-m:e-p270:32:32-p271:32:32-p272:64:64-i64:64-i128:128-f80:128-n8:16:32:64-S128"
target triple = "x86_64-pc-linux-gnu"

@.str = private unnamed_addr constant [77 x i8] c"<jemalloc>: Write-after-free detected on deallocated pointer %p (size %zu).\0A\00", align 1

; Function Attrs: inlinehint nounwind uwtable
define internal void @san_junk_ptr_locations(ptr noundef %0, i64 noundef %1, ptr noundef %2, ptr noundef %3, ptr noundef %4) #3 {
  %6 = alloca ptr, align 8
  %7 = alloca i64, align 8
  %8 = alloca ptr, align 8
  %9 = alloca ptr, align 8
  %10 = alloca ptr, align 8
  %11 = alloca i64, align 8
  store ptr %0, ptr %6, align 8, !tbaa !21
  store i64 %1, ptr %7, align 8, !tbaa !19
  store ptr %2, ptr %8, align 8, !tbaa !21
  store ptr %3, ptr %9, align 8, !tbaa !21
  store ptr %4, ptr %10, align 8, !tbaa !21
  call void @llvm.lifetime.start.p0(i64 8, ptr %11) #6
  store i64 8, ptr %11, align 8, !tbaa !19
  %12 = load ptr, ptr %6, align 8, !tbaa !21
  %13 = load ptr, ptr %8, align 8, !tbaa !21
  store ptr %12, ptr %13, align 8, !tbaa !21
  %14 = load ptr, ptr %6, align 8, !tbaa !21
  %15 = load i64, ptr %7, align 8, !tbaa !19
  %16 = lshr i64 %15, 1
  %17 = load i64, ptr %11, align 8, !tbaa !19
  %18 = sub i64 %17, 1
  %19 = xor i64 %18, -1
  %20 = and i64 %16, %19
  %21 = getelementptr inbounds nuw i8, ptr %14, i64 %20
  %22 = load ptr, ptr %9, align 8, !tbaa !21
  store ptr %21, ptr %22, align 8, !tbaa !21
  br label %23

23:                                               ; preds = %5
  br label %24

24:                                               ; preds = %23
  br label %25

25:                                               ; preds = %24
  br label %26

26:                                               ; preds = %25
  br label %27

27:                                               ; preds = %26
  br label %28

28:                                               ; preds = %27
  %29 = load ptr, ptr %6, align 8, !tbaa !21
  %30 = load i64, ptr %7, align 8, !tbaa !19
  %31 = getelementptr inbounds nuw i8, ptr %29, i64 %30
  %32 = getelementptr inbounds i8, ptr %31, i64 -8
  %33 = load ptr, ptr %10, align 8, !tbaa !21
  store ptr %32, ptr %33, align 8, !tbaa !21
  br label %34

34:                                               ; preds = %28
  br label %35

35:                                               ; preds = %34
  br label %36

36:                                               ; preds = %35
  br label %37

37:                                               ; preds = %36
  br label %38

38:                                               ; preds = %37
  br label %39

39:                                               ; preds = %38
  br label %40

40:                                               ; preds = %39
  br label %41

41:                                               ; preds = %40
  br label %42

42:                                               ; preds = %41
  call void @llvm.lifetime.end.p0(i64 8, ptr %11) #6
  ret void
}

; Function Attrs: inlinehint nounwind uwtable
define internal zeroext i1 @san_junk_ptr_should_slow() #3 {
  ret i1 false
}

; Function Attrs: nounwind uwtable
define internal zeroext i1 @san_stashed_corrupted(ptr noundef %0, i64 noundef %1) #0 {
  %3 = alloca i1, align 1
  %4 = alloca ptr, align 8
  %5 = alloca i64, align 8
  %6 = alloca i64, align 8
  %7 = alloca i32, align 4
  %8 = alloca ptr, align 8
  %9 = alloca ptr, align 8
  %10 = alloca ptr, align 8
  store ptr %0, ptr %4, align 8, !tbaa !21
  store i64 %1, ptr %5, align 8, !tbaa !19
  %11 = call zeroext i1 @san_junk_ptr_should_slow()
  br i1 %11, label %12, label %33

12:                                               ; preds = %2
  call void @llvm.lifetime.start.p0(i64 8, ptr %6) #6
  store i64 0, ptr %6, align 8, !tbaa !19
  br label %13

13:                                               ; preds = %27, %12
  %14 = load i64, ptr %6, align 8, !tbaa !19
  %15 = load i64, ptr %5, align 8, !tbaa !19
  %16 = icmp ult i64 %14, %15
  br i1 %16, label %18, label %17

17:                                               ; preds = %13
  store i32 2, ptr %7, align 4
  br label %30

18:                                               ; preds = %13
  %19 = load ptr, ptr %4, align 8, !tbaa !21
  %20 = load i64, ptr %6, align 8, !tbaa !19
  %21 = getelementptr inbounds nuw i8, ptr %19, i64 %20
  %22 = load i8, ptr %21, align 1, !tbaa !22
  %23 = sext i8 %22 to i32
  %24 = icmp ne i32 %23, 91
  br i1 %24, label %25, label %26

25:                                               ; preds = %18
  store i1 true, ptr %3, align 1
  store i32 1, ptr %7, align 4
  br label %30

26:                                               ; preds = %18
  br label %27

27:                                               ; preds = %26
  %28 = load i64, ptr %6, align 8, !tbaa !19
  %29 = add i64 %28, 1
  store i64 %29, ptr %6, align 8, !tbaa !19
  br label %13, !llvm.loop !31

30:                                               ; preds = %25, %17
  call void @llvm.lifetime.end.p0(i64 8, ptr %6) #6
  %31 = load i32, ptr %7, align 4
  switch i32 %31, label %52 [
    i32 2, label %32
    i32 1, label %50
  ]

32:                                               ; preds = %30
  store i1 false, ptr %3, align 1
  br label %50

33:                                               ; preds = %2
  call void @llvm.lifetime.start.p0(i64 8, ptr %8) #6
  call void @llvm.lifetime.start.p0(i64 8, ptr %9) #6
  call void @llvm.lifetime.start.p0(i64 8, ptr %10) #6
  %34 = load ptr, ptr %4, align 8, !tbaa !21
  %35 = load i64, ptr %5, align 8, !tbaa !19
  call void @san_junk_ptr_locations(ptr noundef %34, i64 noundef %35, ptr noundef %8, ptr noundef %9, ptr noundef %10)
  %36 = load ptr, ptr %8, align 8, !tbaa !21
  %37 = load i64, ptr %36, align 8, !tbaa !19
  %38 = icmp ne i64 %37, 6582955728264977243
  br i1 %38, label %47, label %39

39:                                               ; preds = %33
  %40 = load ptr, ptr %9, align 8, !tbaa !21
  %41 = load i64, ptr %40, align 8, !tbaa !19
  %42 = icmp ne i64 %41, 6582955728264977243
  br i1 %42, label %47, label %43

43:                                               ; preds = %39
  %44 = load ptr, ptr %10, align 8, !tbaa !21
  %45 = load i64, ptr %44, align 8, !tbaa !19
  %46 = icmp ne i64 %45, 6582955728264977243
  br i1 %46, label %47, label %48

47:                                               ; preds = %43, %39, %33
  store i1 true, ptr %3, align 1
  store i32 1, ptr %7, align 4
  br label %49

48:                                               ; preds = %43
  store i1 false, ptr %3, align 1
  store i32 1, ptr %7, align 4
  br label %49

49:                                               ; preds = %48, %47
  call void @llvm.lifetime.end.p0(i64 8, ptr %10) #6
  call void @llvm.lifetime.end.p0(i64 8, ptr %9) #6
  call void @llvm.lifetime.end.p0(i64 8, ptr %8) #6
  br label %50

50:                                               ; preds = %49, %32, %30
  %51 = load i1, ptr %3, align 1
  ret i1 %51

52:                                               ; preds = %30
  unreachable
}

; Function Attrs: nounwind uwtable
define hidden void @je_san_check_stashed_ptrs(ptr noundef %0, i64 noundef %1, i64 noundef %2) #0 {
  %4 = alloca ptr, align 8
  %5 = alloca i64, align 8
  %6 = alloca i64, align 8
  %7 = alloca i64, align 8
  %8 = alloca ptr, align 8
  store ptr %0, ptr %4, align 8, !tbaa !21
  store i64 %1, ptr %5, align 8, !tbaa !19
  store i64 %2, ptr %6, align 8, !tbaa !19
  call void @llvm.lifetime.start.p0(i64 8, ptr %7) #6
  store i64 0, ptr %7, align 8, !tbaa !19
  br label %9

9:                                                ; preds = %38, %3
  %10 = load i64, ptr %7, align 8, !tbaa !19
  %11 = load i64, ptr %5, align 8, !tbaa !19
  %12 = icmp ult i64 %10, %11
  br i1 %12, label %14, label %13

13:                                               ; preds = %9
  call void @llvm.lifetime.end.p0(i64 8, ptr %7) #6
  br label %41

14:                                               ; preds = %9
  call void @llvm.lifetime.start.p0(i64 8, ptr %8) #6
  %15 = load ptr, ptr %4, align 8, !tbaa !21
  %16 = load i64, ptr %7, align 8, !tbaa !19
  %17 = getelementptr inbounds nuw ptr, ptr %15, i64 %16
  %18 = load ptr, ptr %17, align 8, !tbaa !21
  store ptr %18, ptr %8, align 8, !tbaa !21
  br label %19

19:                                               ; preds = %14
  br label %20

20:                                               ; preds = %19
  br label %21

21:                                               ; preds = %20
  br label %22

22:                                               ; preds = %21
  br label %23

23:                                               ; preds = %22
  br label %24

24:                                               ; preds = %23
  %25 = load ptr, ptr %8, align 8, !tbaa !21
  %26 = load i64, ptr %6, align 8, !tbaa !19
  %27 = call zeroext i1 @san_stashed_corrupted(ptr noundef %25, i64 noundef %26)
  %28 = xor i1 %27, true
  %29 = xor i1 %28, true
  %30 = zext i1 %29 to i32
  %31 = sext i32 %30 to i64
  %32 = call i64 @llvm.expect.i64(i64 %31, i64 0)
  %33 = icmp ne i64 %32, 0
  br i1 %33, label %34, label %37

34:                                               ; preds = %24
  %35 = load ptr, ptr %8, align 8, !tbaa !21
  %36 = load i64, ptr %6, align 8, !tbaa !19
  call void (ptr, ...) @je_safety_check_fail(ptr noundef @.str, ptr noundef %35, i64 noundef %36)
  br label %37

37:                                               ; preds = %34, %24
  call void @llvm.lifetime.end.p0(i64 8, ptr %8) #6
  br label %38

38:                                               ; preds = %37
  %39 = load i64, ptr %7, align 8, !tbaa !19
  %40 = add i64 %39, 1
  store i64 %40, ptr %7, align 8, !tbaa !19
  br label %9, !llvm.loop !29

41:                                               ; preds = %13
  ret void
}