; Function Attrs: nounwind uwtable
define hidden void @je_san_check_stashed_ptrs(ptr noundef readonly captures(none) %0, i64 noundef %1, i64 noundef %2) local_unnamed_addr #0 {
  %.not = icmp eq i64 %1, 0
  br i1 %.not, label %._crit_edge, label %.lr.ph

.lr.ph:                                           ; preds = %3
  %4 = lshr i64 %2, 1
  %5 = and i64 %4, 9223372036854775800
  br label %6

._crit_edge:                                      ; preds = %16, %3
  ret void

6:                                                ; preds = %.lr.ph, %16
  %.09 = phi i64 [ 0, %.lr.ph ], [ %17, %16 ]
  %7 = getelementptr inbounds nuw ptr, ptr %0, i64 %.09
  %8 = load ptr, ptr %7, align 8, !tbaa !13
  %9 = getelementptr inbounds nuw i8, ptr %8, i64 %2
  %10 = getelementptr inbounds i8, ptr %9, i64 -8
  %11 = load i64, ptr %8, align 8, !tbaa !14
  %.not.i = icmp eq i64 %11, 6582955728264977243
  br i1 %.not.i, label %12, label %san_stashed_corrupted.exit.thread, !prof !15

12:                                               ; preds = %6
  %13 = getelementptr inbounds nuw i8, ptr %8, i64 %5
  %14 = load i64, ptr %13, align 8, !tbaa !14
  %.not10.i = icmp eq i64 %14, 6582955728264977243
  br i1 %.not10.i, label %san_stashed_corrupted.exit, label %san_stashed_corrupted.exit.thread, !prof !15

san_stashed_corrupted.exit:                       ; preds = %12
  %15 = load i64, ptr %10, align 8, !tbaa !14
  %.not11.i.not = icmp eq i64 %15, 6582955728264977243
  br i1 %.not11.i.not, label %16, label %san_stashed_corrupted.exit.thread, !prof !16

san_stashed_corrupted.exit.thread:                ; preds = %6, %12, %san_stashed_corrupted.exit
  tail call void (ptr, ...) @je_safety_check_fail(ptr noundef nonnull @.str, ptr noundef nonnull %8, i64 noundef %2) #4
  br label %16

16:                                               ; preds = %san_stashed_corrupted.exit.thread, %san_stashed_corrupted.exit
  %17 = add nuw i64 %.09, 1
  %exitcond.not = icmp eq i64 %17, %1
  br i1 %exitcond.not, label %._crit_edge, label %6, !llvm.loop !17
}